; Function Attrs: mustprogress nofree norecurse nosync nounwind willreturn memory(argmem: read) uwtable
define noundef signext range(i8 0, 2) i8 @_ZN6icu_7712PatternProps12isIdentifierEPKDsi(ptr noundef readonly %0, i32 noundef %1) local_unnamed_addr #1 align 2 {
  %3 = icmp slt i32 %1, 1
  br i1 %3, label %.loopexit, label %4

4:                                                ; preds = %2
  %5 = zext nneg i32 %1 to i64
  %6 = getelementptr inbounds nuw i16, ptr %0, i64 %5
  br label %7

7:                                                ; preds = %_ZN6icu_7712PatternProps20isSyntaxOrWhiteSpaceEi.exit.thread, %4
  %.06 = phi ptr [ %0, %4 ], [ %39, %_ZN6icu_7712PatternProps20isSyntaxOrWhiteSpaceEi.exit.thread ]
  %8 = load i16, ptr %.06, align 2, !tbaa !8
  %9 = zext i16 %8 to i32
  %10 = icmp ult i16 %8, 256
  br i1 %10, label %11, label %16

11:                                               ; preds = %7
  %12 = zext nneg i16 %8 to i64
  %13 = getelementptr inbounds nuw [256 x i8], ptr @_ZN6icu_77L6latin1E, i64 0, i64 %12
  %14 = load i8, ptr %13, align 1, !tbaa !3
  %15 = and i8 %14, 1
  br label %_ZN6icu_7712PatternProps20isSyntaxOrWhiteSpaceEi.exit

16:                                               ; preds = %7
  %17 = icmp ult i16 %8, 8206
  br i1 %17, label %_ZN6icu_7712PatternProps20isSyntaxOrWhiteSpaceEi.exit.thread, label %18

18:                                               ; preds = %16
  %19 = icmp ult i16 %8, 12337
  br i1 %19, label %20, label %33

20:                                               ; preds = %18
  %21 = add nsw i32 %9, -8192
  %22 = lshr i32 %21, 5
  %23 = zext nneg i32 %22 to i64
  %24 = getelementptr inbounds nuw [130 x i8], ptr @_ZN6icu_77L9index2000E, i64 0, i64 %23
  %25 = load i8, ptr %24, align 1, !tbaa !3
  %26 = zext i8 %25 to i64
  %27 = getelementptr inbounds nuw [10 x i32], ptr @_ZN6icu_77L22syntaxOrWhiteSpace2000E, i64 0, i64 %26
  %28 = load i32, ptr %27, align 4, !tbaa !6
  %29 = and i32 %9, 31
  %30 = lshr i32 %28, %29
  %31 = trunc i32 %30 to i8
  %32 = and i8 %31, 1
  br label %_ZN6icu_7712PatternProps20isSyntaxOrWhiteSpaceEi.exit

33:                                               ; preds = %18
  %34 = add i16 %8, 706
  %or.cond.i = icmp ult i16 %34, 265
  br i1 %or.cond.i, label %35, label %_ZN6icu_7712PatternProps20isSyntaxOrWhiteSpaceEi.exit.thread

35:                                               ; preds = %33
  %36 = add nsw i32 %9, -65093
  %37 = icmp ult i32 %36, -261
  %38 = zext i1 %37 to i8
  br label %_ZN6icu_7712PatternProps20isSyntaxOrWhiteSpaceEi.exit

_ZN6icu_7712PatternProps20isSyntaxOrWhiteSpaceEi.exit: ; preds = %11, %20, %35
  %.0.i = phi i8 [ %15, %11 ], [ %32, %20 ], [ %38, %35 ]
  %.not = icmp eq i8 %.0.i, 0
  br i1 %.not, label %_ZN6icu_7712PatternProps20isSyntaxOrWhiteSpaceEi.exit.thread, label %.loopexit

_ZN6icu_7712PatternProps20isSyntaxOrWhiteSpaceEi.exit.thread: ; preds = %33, %16, %_ZN6icu_7712PatternProps20isSyntaxOrWhiteSpaceEi.exit
  %39 = getelementptr inbounds nuw i8, ptr %.06, i64 2
  %40 = icmp ult ptr %39, %6
  br i1 %40, label %7, label %.loopexit, !llvm.loop !15

.loopexit:                                        ; preds = %_ZN6icu_7712PatternProps20isSyntaxOrWhiteSpaceEi.exit, %_ZN6icu_7712PatternProps20isSyntaxOrWhiteSpaceEi.exit.thread, %2
  %.0 = phi i8 [ 0, %2 ], [ 1, %_ZN6icu_7712PatternProps20isSyntaxOrWhiteSpaceEi.exit.thread ], [ 0, %_ZN6icu_7712PatternProps20isSyntaxOrWhiteSpaceEi.exit ]
  ret i8 %.0
}